target datalayout = "e-m:e-p270:32:32-p271:32:32-p272:64:64-i64:64-i128:128-f80:128-n8:16:32:64-S128"
target triple = "x86_64-pc-linux-gnu"

%struct.rb_id_table = type { i32, i32, i32, ptr }
%struct.rb_id_item = type { i32, i32, i64 }

; Function Attrs: nounwind sspstrong uwtable
define hidden void @rb_id_table_foreach_values_with_replace(ptr noundef %0, ptr noundef %1, ptr noundef %2, ptr noundef %3) #0 {
  %5 = alloca ptr, align 8
  %6 = alloca ptr, align 8
  %7 = alloca ptr, align 8
  %8 = alloca ptr, align 8
  %9 = alloca i32, align 4
  %10 = alloca i32, align 4
  %11 = alloca i32, align 4
  %12 = alloca i64, align 8
  %13 = alloca i32, align 4
  store ptr %0, ptr %5, align 8, !tbaa !61
  store ptr %1, ptr %6, align 8, !tbaa !7
  store ptr %2, ptr %7, align 8, !tbaa !7
  store ptr %3, ptr %8, align 8, !tbaa !7
  call void @llvm.lifetime.start.p0(i64 4, ptr %9) #24
  call void @llvm.lifetime.start.p0(i64 4, ptr %10) #24
  %14 = load ptr, ptr %5, align 8, !tbaa !61
  %15 = getelementptr inbounds nuw %struct.rb_id_table, ptr %14, i32 0, i32 0
  %16 = load i32, ptr %15, align 8, !tbaa !63
  store i32 %16, ptr %10, align 4, !tbaa !21
  store i32 0, ptr %9, align 4, !tbaa !21
  br label %17

17:                                               ; preds = %74, %4
  %18 = load i32, ptr %9, align 4, !tbaa !21
  %19 = load i32, ptr %10, align 4, !tbaa !21
  %20 = icmp slt i32 %18, %19
  br i1 %20, label %21, label %77

21:                                               ; preds = %17
  %22 = load ptr, ptr %5, align 8, !tbaa !61
  %23 = getelementptr inbounds nuw %struct.rb_id_table, ptr %22, i32 0, i32 3
  %24 = load ptr, ptr %23, align 8, !tbaa !66
  %25 = load i32, ptr %9, align 4, !tbaa !21
  %26 = sext i32 %25 to i64
  %27 = getelementptr %struct.rb_id_item, ptr %24, i64 %26
  %28 = getelementptr inbounds nuw %struct.rb_id_item, ptr %27, i32 0, i32 0
  %29 = load i32, ptr %28, align 8, !tbaa !74
  %30 = icmp ne i32 %29, 0
  br i1 %30, label %31, label %73

31:                                               ; preds = %21
  call void @llvm.lifetime.start.p0(i64 4, ptr %11) #24
  %32 = load ptr, ptr %6, align 8, !tbaa !7
  %33 = load ptr, ptr %5, align 8, !tbaa !61
  %34 = getelementptr inbounds nuw %struct.rb_id_table, ptr %33, i32 0, i32 3
  %35 = load ptr, ptr %34, align 8, !tbaa !66
  %36 = load i32, ptr %9, align 4, !tbaa !21
  %37 = sext i32 %36 to i64
  %38 = getelementptr %struct.rb_id_item, ptr %35, i64 %37
  %39 = getelementptr inbounds nuw %struct.rb_id_item, ptr %38, i32 0, i32 2
  %40 = load i64, ptr %39, align 8, !tbaa !72
  %41 = load ptr, ptr %8, align 8, !tbaa !7
  %42 = call i32 %32(i64 noundef %40, ptr noundef %41)
  store i32 %42, ptr %11, align 4, !tbaa !21
  %43 = load i32, ptr %11, align 4, !tbaa !21
  %44 = icmp eq i32 %43, 4
  br i1 %44, label %45, label %65

45:                                               ; preds = %31
  call void @llvm.lifetime.start.p0(i64 8, ptr %12) #24
  %46 = load ptr, ptr %5, align 8, !tbaa !61
  %47 = getelementptr inbounds nuw %struct.rb_id_table, ptr %46, i32 0, i32 3
  %48 = load ptr, ptr %47, align 8, !tbaa !66
  %49 = load i32, ptr %9, align 4, !tbaa !21
  %50 = sext i32 %49 to i64
  %51 = getelementptr %struct.rb_id_item, ptr %48, i64 %50
  %52 = getelementptr inbounds nuw %struct.rb_id_item, ptr %51, i32 0, i32 2
  %53 = load i64, ptr %52, align 8, !tbaa !72
  store i64 %53, ptr %12, align 8, !tbaa !11
  %54 = load ptr, ptr %7, align 8, !tbaa !7
  %55 = load ptr, ptr %8, align 8, !tbaa !7
  %56 = call i32 %54(ptr noundef %12, ptr noundef %55, i32 noundef 1)
  store i32 %56, ptr %11, align 4, !tbaa !21
  %57 = load i64, ptr %12, align 8, !tbaa !11
  %58 = load ptr, ptr %5, align 8, !tbaa !61
  %59 = getelementptr inbounds nuw %struct.rb_id_table, ptr %58, i32 0, i32 3
  %60 = load ptr, ptr %59, align 8, !tbaa !66
  %61 = load i32, ptr %9, align 4, !tbaa !21
  %62 = sext i32 %61 to i64
  %63 = getelementptr %struct.rb_id_item, ptr %60, i64 %62
  %64 = getelementptr inbounds nuw %struct.rb_id_item, ptr %63, i32 0, i32 2
  store i64 %57, ptr %64, align 8, !tbaa !72
  call void @llvm.lifetime.end.p0(i64 8, ptr %12) #24
  br label %65

65:                                               ; preds = %45, %31
  %66 = load i32, ptr %11, align 4, !tbaa !21
  %67 = icmp eq i32 %66, 1
  br i1 %67, label %68, label %69

68:                                               ; preds = %65
  store i32 1, ptr %13, align 4
  br label %70

69:                                               ; preds = %65
  store i32 0, ptr %13, align 4
  br label %70

70:                                               ; preds = %69, %68
  call void @llvm.lifetime.end.p0(i64 4, ptr %11) #24
  %71 = load i32, ptr %13, align 4
  switch i32 %71, label %78 [
    i32 0, label %72
  ]

72:                                               ; preds = %70
  br label %73

73:                                               ; preds = %72, %21
  br label %74

74:                                               ; preds = %73
  %75 = load i32, ptr %9, align 4, !tbaa !21
  %76 = add i32 %75, 1
  store i32 %76, ptr %9, align 4, !tbaa !21
  br label %17, !llvm.loop !79

77:                                               ; preds = %17
  store i32 0, ptr %13, align 4
  br label %78

78:                                               ; preds = %77, %70
  call void @llvm.lifetime.end.p0(i64 4, ptr %10) #24
  call void @llvm.lifetime.end.p0(i64 4, ptr %9) #24
  %79 = load i32, ptr %13, align 4
  switch i32 %79, label %81 [
    i32 0, label %80
    i32 1, label %80
  ]

80:                                               ; preds = %78, %78
  ret void

81:                                               ; preds = %78
  unreachable
}