; Function Attrs: nounwind sspstrong uwtable
define hidden void @rb_id_table_foreach_values_with_replace(ptr noundef readonly captures(none) %0, ptr noundef readonly captures(none) %1, ptr noundef readonly captures(none) %2, ptr noundef %3) local_unnamed_addr #0 {
  %5 = alloca i64, align 8
  %6 = load i32, ptr %0, align 8, !tbaa !82
  %7 = icmp sgt i32 %6, 0
  br i1 %7, label %.lr.ph, label %._crit_edge

.lr.ph:                                           ; preds = %4
  %8 = getelementptr inbounds nuw i8, ptr %0, i64 16
  br label %.backedge

.backedge:                                        ; preds = %.backedge.backedge, %.lr.ph
  %.01922 = phi i32 [ 0, %.lr.ph ], [ %.01922.be, %.backedge.backedge ]
  %9 = load ptr, ptr %8, align 8, !tbaa !85
  %10 = zext nneg i32 %.01922 to i64
  %11 = getelementptr %struct.rb_id_item, ptr %9, i64 %10
  %12 = load i32, ptr %11, align 8, !tbaa !88
  %.not = icmp eq i32 %12, 0
  br i1 %.not, label %29, label %13

13:                                               ; preds = %.backedge
  %14 = getelementptr inbounds nuw i8, ptr %11, i64 8
  %15 = load i64, ptr %14, align 8, !tbaa !92
  %16 = call i32 %1(i64 noundef %15, ptr noundef %3) #19
  %17 = icmp eq i32 %16, 4
  br i1 %17, label %18, label %26

18:                                               ; preds = %13
  call void @llvm.lifetime.start.p0(i64 8, ptr nonnull %5) #19
  %19 = load ptr, ptr %8, align 8, !tbaa !85
  %20 = getelementptr %struct.rb_id_item, ptr %19, i64 %10, i32 2
  %21 = load i64, ptr %20, align 8, !tbaa !92
  store i64 %21, ptr %5, align 8, !tbaa !32
  %22 = call i32 %2(ptr noundef nonnull %5, ptr noundef %3, i32 noundef 1) #19
  %23 = load i64, ptr %5, align 8, !tbaa !32
  %24 = load ptr, ptr %8, align 8, !tbaa !85
  %25 = getelementptr %struct.rb_id_item, ptr %24, i64 %10, i32 2
  store i64 %23, ptr %25, align 8, !tbaa !92
  call void @llvm.lifetime.end.p0(i64 8, ptr nonnull %5) #19
  br label %26

26:                                               ; preds = %18, %13
  %.018 = phi i32 [ %22, %18 ], [ %16, %13 ]
  %.not21 = icmp ne i32 %.018, 1
  %27 = add nuw nsw i32 %.01922, 1
  %28 = icmp slt i32 %27, %6
  %or.cond = select i1 %.not21, i1 %28, i1 false
  br i1 %or.cond, label %.backedge.backedge, label %._crit_edge

29:                                               ; preds = %.backedge
  %.old = add nuw nsw i32 %.01922, 1
  %.old24 = icmp slt i32 %.old, %6
  br i1 %.old24, label %.backedge.backedge, label %._crit_edge

.backedge.backedge:                               ; preds = %29, %26
  %.01922.be = phi i32 [ %.old, %29 ], [ %27, %26 ]
  br label %.backedge, !llvm.loop !98

._crit_edge:                                      ; preds = %26, %29, %4
  ret void
}